; Function Attrs: mustprogress uwtable
define noundef nonnull align 8 dereferenceable(168) ptr @_ZN8QuantLib24MakeArithmeticAverageOIS18withSettlementDaysEj(ptr noundef nonnull returned writeonly align 8 dereferenceable(168) %this, i32 noundef %settlementDays) local_unnamed_addr #9 align 2 {
entry:
  %ref.tmp = alloca %"class.QuantLib::Date", align 8
  %settlementDays_ = getelementptr inbounds nuw i8, ptr %this, i64 40
  store i32 %settlementDays, ptr %settlementDays_, align 8, !tbaa !61
  call void @llvm.lifetime.start.p0(i64 8, ptr nonnull %ref.tmp) #28
  call void @_ZN8QuantLib4DateC1Ev(ptr noundef nonnull align 8 dereferenceable(8) %ref.tmp)
  %effectiveDate_ = getelementptr inbounds nuw i8, ptr %this, i64 48
  %0 = load i64, ptr %ref.tmp, align 8, !tbaa !37
  store i64 %0, ptr %effectiveDate_, align 8, !tbaa !37
  call void @llvm.lifetime.end.p0(i64 8, ptr nonnull %ref.tmp) #28
  ret ptr %this
}